target datalayout = "e-m:e-p270:32:32-p271:32:32-p272:64:64-i64:64-i128:128-f80:128-n8:16:32:64-S128"
target triple = "x86_64-pc-linux-gnu"

@sane_ctype = external constant [256 x i8], align 16

; Function Attrs: inlinehint nounwind uwtable
define internal i32 @sane_case(i32 noundef %0, i32 noundef %1) #2 {
  %3 = alloca i32, align 4
  %4 = alloca i32, align 4
  store i32 %0, ptr %3, align 4, !tbaa !4
  store i32 %1, ptr %4, align 4, !tbaa !4
  %5 = load i32, ptr %3, align 4, !tbaa !4
  %6 = trunc i32 %5 to i8
  %7 = zext i8 %6 to i64
  %8 = getelementptr inbounds nuw [256 x i8], ptr @sane_ctype, i64 0, i64 %7
  %9 = load i8, ptr %8, align 1, !tbaa !18
  %10 = zext i8 %9 to i32
  %11 = and i32 %10, 4
  %12 = icmp ne i32 %11, 0
  br i1 %12, label %13, label %18

13:                                               ; preds = %2
  %14 = load i32, ptr %3, align 4, !tbaa !4
  %15 = and i32 %14, -33
  %16 = load i32, ptr %4, align 4, !tbaa !4
  %17 = or i32 %15, %16
  store i32 %17, ptr %3, align 4, !tbaa !4
  br label %18

18:                                               ; preds = %13, %2
  %19 = load i32, ptr %3, align 4, !tbaa !4
  ret i32 %19
}

; Function Attrs: nounwind uwtable
define internal i32 @is_ntfs_dot_generic(ptr noundef %0, ptr noundef %1, i64 noundef %2, ptr noundef %3) #0 {
  %5 = alloca i32, align 4
  %6 = alloca ptr, align 8
  %7 = alloca ptr, align 8
  %8 = alloca i64, align 8
  %9 = alloca ptr, align 8
  %10 = alloca i32, align 4
  %11 = alloca i64, align 8
  %12 = alloca i8, align 1
  %13 = alloca i32, align 4
  store ptr %0, ptr %6, align 8, !tbaa !43
  store ptr %1, ptr %7, align 8, !tbaa !43
  store i64 %2, ptr %8, align 8, !tbaa !11
  store ptr %3, ptr %9, align 8, !tbaa !43
  call void @llvm.lifetime.start.p0(i64 4, ptr %10) #12
  call void @llvm.lifetime.start.p0(i64 8, ptr %11) #12
  %14 = load ptr, ptr %6, align 8, !tbaa !43
  %15 = getelementptr inbounds i8, ptr %14, i64 0
  %16 = load i8, ptr %15, align 1, !tbaa !18
  %17 = sext i8 %16 to i32
  %18 = icmp eq i32 %17, 46
  br i1 %18, label %19, label %56

19:                                               ; preds = %4
  %20 = load ptr, ptr %6, align 8, !tbaa !43
  %21 = getelementptr inbounds i8, ptr %20, i64 1
  %22 = load ptr, ptr %7, align 8, !tbaa !43
  %23 = load i64, ptr %8, align 8, !tbaa !11
  %24 = call i32 @strncasecmp(ptr noundef %21, ptr noundef %22, i64 noundef %23) #14
  %25 = icmp ne i32 %24, 0
  br i1 %25, label %56, label %26

26:                                               ; preds = %19
  %27 = load i64, ptr %8, align 8, !tbaa !11
  %28 = add i64 %27, 1
  store i64 %28, ptr %11, align 8, !tbaa !11
  br label %29

29:                                               ; preds = %171, %79, %26
  br label %30

30:                                               ; preds = %55, %29
  call void @llvm.lifetime.start.p0(i64 1, ptr %12) #12
  %31 = load ptr, ptr %6, align 8, !tbaa !43
  %32 = load i64, ptr %11, align 8, !tbaa !11
  %33 = add i64 %32, 1
  store i64 %33, ptr %11, align 8, !tbaa !11
  %34 = getelementptr inbounds nuw i8, ptr %31, i64 %32
  %35 = load i8, ptr %34, align 1, !tbaa !18
  store i8 %35, ptr %12, align 1, !tbaa !18
  %36 = load i8, ptr %12, align 1, !tbaa !18
  %37 = icmp ne i8 %36, 0
  br i1 %37, label %38, label %42

38:                                               ; preds = %30
  %39 = load i8, ptr %12, align 1, !tbaa !18
  %40 = sext i8 %39 to i32
  %41 = icmp eq i32 %40, 58
  br i1 %41, label %42, label %43

42:                                               ; preds = %38, %30
  store i32 1, ptr %5, align 4
  store i32 1, ptr %13, align 4
  br label %53

43:                                               ; preds = %38
  %44 = load i8, ptr %12, align 1, !tbaa !18
  %45 = sext i8 %44 to i32
  %46 = icmp ne i32 %45, 32
  br i1 %46, label %47, label %52

47:                                               ; preds = %43
  %48 = load i8, ptr %12, align 1, !tbaa !18
  %49 = sext i8 %48 to i32
  %50 = icmp ne i32 %49, 46
  br i1 %50, label %51, label %52

51:                                               ; preds = %47
  store i32 0, ptr %5, align 4
  store i32 1, ptr %13, align 4
  br label %53

52:                                               ; preds = %47, %43
  store i32 0, ptr %13, align 4
  br label %53

53:                                               ; preds = %52, %51, %42
  call void @llvm.lifetime.end.p0(i64 1, ptr %12) #12
  %54 = load i32, ptr %13, align 4
  switch i32 %54, label %172 [
    i32 0, label %55
  ]

55:                                               ; preds = %53
  br label %30

56:                                               ; preds = %19, %4
  %57 = load ptr, ptr %6, align 8, !tbaa !43
  %58 = load ptr, ptr %7, align 8, !tbaa !43
  %59 = call i32 @strncasecmp(ptr noundef %57, ptr noundef %58, i64 noundef 6) #14
  %60 = icmp ne i32 %59, 0
  br i1 %60, label %80, label %61

61:                                               ; preds = %56
  %62 = load ptr, ptr %6, align 8, !tbaa !43
  %63 = getelementptr inbounds i8, ptr %62, i64 6
  %64 = load i8, ptr %63, align 1, !tbaa !18
  %65 = sext i8 %64 to i32
  %66 = icmp eq i32 %65, 126
  br i1 %66, label %67, label %80

67:                                               ; preds = %61
  %68 = load ptr, ptr %6, align 8, !tbaa !43
  %69 = getelementptr inbounds i8, ptr %68, i64 7
  %70 = load i8, ptr %69, align 1, !tbaa !18
  %71 = sext i8 %70 to i32
  %72 = icmp sge i32 %71, 49
  br i1 %72, label %73, label %80

73:                                               ; preds = %67
  %74 = load ptr, ptr %6, align 8, !tbaa !43
  %75 = getelementptr inbounds i8, ptr %74, i64 7
  %76 = load i8, ptr %75, align 1, !tbaa !18
  %77 = sext i8 %76 to i32
  %78 = icmp sle i32 %77, 52
  br i1 %78, label %79, label %80

79:                                               ; preds = %73
  store i64 8, ptr %11, align 8, !tbaa !11
  br label %29

80:                                               ; preds = %73, %67, %61, %56
  store i64 0, ptr %11, align 8, !tbaa !11
  store i32 0, ptr %10, align 4, !tbaa !4
  br label %81

81:                                               ; preds = %168, %80
  %82 = load i64, ptr %11, align 8, !tbaa !11
  %83 = icmp ult i64 %82, 8
  br i1 %83, label %84, label %171

84:                                               ; preds = %81
  %85 = load ptr, ptr %6, align 8, !tbaa !43
  %86 = load i64, ptr %11, align 8, !tbaa !11
  %87 = getelementptr inbounds nuw i8, ptr %85, i64 %86
  %88 = load i8, ptr %87, align 1, !tbaa !18
  %89 = sext i8 %88 to i32
  %90 = icmp eq i32 %89, 0
  br i1 %90, label %91, label %92

91:                                               ; preds = %84
  store i32 0, ptr %5, align 4
  store i32 1, ptr %13, align 4
  br label %172

92:                                               ; preds = %84
  %93 = load i32, ptr %10, align 4, !tbaa !4
  %94 = icmp ne i32 %93, 0
  br i1 %94, label %95, label %111

95:                                               ; preds = %92
  %96 = load ptr, ptr %6, align 8, !tbaa !43
  %97 = load i64, ptr %11, align 8, !tbaa !11
  %98 = getelementptr inbounds nuw i8, ptr %96, i64 %97
  %99 = load i8, ptr %98, align 1, !tbaa !18
  %100 = sext i8 %99 to i32
  %101 = icmp slt i32 %100, 48
  br i1 %101, label %109, label %102

102:                                              ; preds = %95
  %103 = load ptr, ptr %6, align 8, !tbaa !43
  %104 = load i64, ptr %11, align 8, !tbaa !11
  %105 = getelementptr inbounds nuw i8, ptr %103, i64 %104
  %106 = load i8, ptr %105, align 1, !tbaa !18
  %107 = sext i8 %106 to i32
  %108 = icmp sgt i32 %107, 57
  br i1 %108, label %109, label %110

109:                                              ; preds = %102, %95
  store i32 0, ptr %5, align 4
  store i32 1, ptr %13, align 4
  br label %172

110:                                              ; preds = %102
  br label %166

111:                                              ; preds = %92
  %112 = load ptr, ptr %6, align 8, !tbaa !43
  %113 = load i64, ptr %11, align 8, !tbaa !11
  %114 = getelementptr inbounds nuw i8, ptr %112, i64 %113
  %115 = load i8, ptr %114, align 1, !tbaa !18
  %116 = sext i8 %115 to i32
  %117 = icmp eq i32 %116, 126
  br i1 %117, label %118, label %135

118:                                              ; preds = %111
  %119 = load ptr, ptr %6, align 8, !tbaa !43
  %120 = load i64, ptr %11, align 8, !tbaa !11
  %121 = add i64 %120, 1
  store i64 %121, ptr %11, align 8, !tbaa !11
  %122 = getelementptr inbounds nuw i8, ptr %119, i64 %121
  %123 = load i8, ptr %122, align 1, !tbaa !18
  %124 = sext i8 %123 to i32
  %125 = icmp slt i32 %124, 49
  br i1 %125, label %133, label %126

126:                                              ; preds = %118
  %127 = load ptr, ptr %6, align 8, !tbaa !43
  %128 = load i64, ptr %11, align 8, !tbaa !11
  %129 = getelementptr inbounds nuw i8, ptr %127, i64 %128
  %130 = load i8, ptr %129, align 1, !tbaa !18
  %131 = sext i8 %130 to i32
  %132 = icmp sgt i32 %131, 57
  br i1 %132, label %133, label %134

133:                                              ; preds = %126, %118
  store i32 0, ptr %5, align 4
  store i32 1, ptr %13, align 4
  br label %172

134:                                              ; preds = %126
  store i32 1, ptr %10, align 4, !tbaa !4
  br label %165

135:                                              ; preds = %111
  %136 = load i64, ptr %11, align 8, !tbaa !11
  %137 = icmp uge i64 %136, 6
  br i1 %137, label %138, label %139

138:                                              ; preds = %135
  store i32 0, ptr %5, align 4
  store i32 1, ptr %13, align 4
  br label %172

139:                                              ; preds = %135
  %140 = load ptr, ptr %6, align 8, !tbaa !43
  %141 = load i64, ptr %11, align 8, !tbaa !11
  %142 = getelementptr inbounds nuw i8, ptr %140, i64 %141
  %143 = load i8, ptr %142, align 1, !tbaa !18
  %144 = sext i8 %143 to i32
  %145 = and i32 %144, 128
  %146 = icmp ne i32 %145, 0
  br i1 %146, label %147, label %148

147:                                              ; preds = %139
  store i32 0, ptr %5, align 4
  store i32 1, ptr %13, align 4
  br label %172

148:                                              ; preds = %139
  %149 = load ptr, ptr %6, align 8, !tbaa !43
  %150 = load i64, ptr %11, align 8, !tbaa !11
  %151 = getelementptr inbounds nuw i8, ptr %149, i64 %150
  %152 = load i8, ptr %151, align 1, !tbaa !18
  %153 = zext i8 %152 to i32
  %154 = call i32 @sane_case(i32 noundef %153, i32 noundef 32)
  %155 = load ptr, ptr %9, align 8, !tbaa !43
  %156 = load i64, ptr %11, align 8, !tbaa !11
  %157 = getelementptr inbounds nuw i8, ptr %155, i64 %156
  %158 = load i8, ptr %157, align 1, !tbaa !18
  %159 = sext i8 %158 to i32
  %160 = icmp ne i32 %154, %159
  br i1 %160, label %161, label %162

161:                                              ; preds = %148
  store i32 0, ptr %5, align 4
  store i32 1, ptr %13, align 4
  br label %172

162:                                              ; preds = %148
  br label %163

163:                                              ; preds = %162
  br label %164

164:                                              ; preds = %163
  br label %165

165:                                              ; preds = %164, %134
  br label %166

166:                                              ; preds = %165, %110
  br label %167

167:                                              ; preds = %166
  br label %168

168:                                              ; preds = %167
  %169 = load i64, ptr %11, align 8, !tbaa !11
  %170 = add i64 %169, 1
  store i64 %170, ptr %11, align 8, !tbaa !11
  br label %81, !llvm.loop !141

171:                                              ; preds = %81
  br label %29

172:                                              ; preds = %161, %147, %138, %133, %109, %91, %53
  call void @llvm.lifetime.end.p0(i64 8, ptr %11) #12
  call void @llvm.lifetime.end.p0(i64 4, ptr %10) #12
  %173 = load i32, ptr %5, align 4
  ret i32 %173
}

; Function Attrs: inlinehint nounwind uwtable
define internal i32 @is_ntfs_dot_str(ptr noundef %0, ptr noundef %1, ptr noundef %2) #2 {
  %4 = alloca ptr, align 8
  %5 = alloca ptr, align 8
  %6 = alloca ptr, align 8
  store ptr %0, ptr %4, align 8, !tbaa !43
  store ptr %1, ptr %5, align 8, !tbaa !43
  store ptr %2, ptr %6, align 8, !tbaa !43
  %7 = load ptr, ptr %4, align 8, !tbaa !43
  %8 = load ptr, ptr %5, align 8, !tbaa !43
  %9 = load ptr, ptr %5, align 8, !tbaa !43
  %10 = call i64 @strlen(ptr noundef %9) #14
  %11 = load ptr, ptr %6, align 8, !tbaa !43
  %12 = call i32 @is_ntfs_dot_generic(ptr noundef %7, ptr noundef %8, i64 noundef %10, ptr noundef %11)
  ret i32 %12
}