; Function Attrs: inlinehint nofree nounwind memory(read) uwtable
define internal fastcc range(i32 0, 2) i32 @is_ntfs_dot_str(ptr noundef readonly captures(none) %0, ptr noundef readonly captures(none) %1, ptr noundef readonly captures(none) %2) unnamed_addr #21 {
  %4 = tail call i64 @strlen(ptr noundef nonnull dereferenceable(1) %1) #30
  %5 = load i8, ptr %0, align 1, !tbaa !14
  %6 = icmp eq i8 %5, 46
  br i1 %6, label %7, label %16

7:                                                ; preds = %3
  %8 = getelementptr inbounds nuw i8, ptr %0, i64 1
  %9 = tail call i32 @strncasecmp(ptr noundef nonnull readonly %8, ptr noundef nonnull readonly %1, i64 noundef %4) #30
  %.not.i = icmp eq i32 %9, 0
  br i1 %.not.i, label %10, label %16

10:                                               ; preds = %7
  %11 = add i64 %4, 1
  br label %.loopexit.i.preheader

.loopexit.i.preheader:                            ; preds = %50, %22, %10
  %.146.i.ph = phi i64 [ 8, %22 ], [ %11, %10 ], [ %51, %50 ]
  br label %.loopexit.i

.loopexit.i:                                      ; preds = %.loopexit.i.preheader, %14
  %.146.i = phi i64 [ %15, %14 ], [ %.146.i.ph, %.loopexit.i.preheader ]
  %12 = getelementptr inbounds nuw i8, ptr %0, i64 %.146.i
  %13 = load i8, ptr %12, align 1, !tbaa !14
  switch i8 %13, label %is_ntfs_dot_generic.exit.loopexit [
    i8 58, label %is_ntfs_dot_generic.exit
    i8 0, label %is_ntfs_dot_generic.exit
    i8 46, label %14
    i8 32, label %14
  ]

14:                                               ; preds = %.loopexit.i, %.loopexit.i
  %15 = add i64 %.146.i, 1
  br label %.loopexit.i

16:                                               ; preds = %7, %3
  %17 = tail call i32 @strncasecmp(ptr noundef nonnull readonly %0, ptr noundef nonnull readonly %1, i64 noundef 6) #30
  %.not54.i = icmp eq i32 %17, 0
  br i1 %.not54.i, label %18, label %.preheader

18:                                               ; preds = %16
  %19 = getelementptr inbounds nuw i8, ptr %0, i64 6
  %20 = load i8, ptr %19, align 1, !tbaa !14
  %21 = icmp eq i8 %20, 126
  br i1 %21, label %22, label %.preheader

22:                                               ; preds = %18
  %23 = getelementptr inbounds nuw i8, ptr %0, i64 7
  %24 = load i8, ptr %23, align 1, !tbaa !14
  %25 = add i8 %24, -49
  %or.cond.i = icmp ult i8 %25, 4
  br i1 %or.cond.i, label %.loopexit.i.preheader, label %.preheader

.preheader:                                       ; preds = %22, %18, %16
  br label %26

26:                                               ; preds = %.preheader, %50
  %.24767.i = phi i64 [ %51, %50 ], [ 0, %.preheader ]
  %.04866.i = phi i32 [ %.149.i, %50 ], [ 0, %.preheader ]
  %27 = getelementptr inbounds nuw i8, ptr %0, i64 %.24767.i
  %28 = load i8, ptr %27, align 1, !tbaa !14
  %29 = icmp eq i8 %28, 0
  br i1 %29, label %is_ntfs_dot_generic.exit, label %30

30:                                               ; preds = %26
  %.not55.i = icmp eq i32 %.04866.i, 0
  br i1 %.not55.i, label %33, label %31

31:                                               ; preds = %30
  %32 = add i8 %28, -58
  %or.cond58.i = icmp ult i8 %32, -10
  br i1 %or.cond58.i, label %is_ntfs_dot_generic.exit, label %50

33:                                               ; preds = %30
  %34 = icmp eq i8 %28, 126
  br i1 %34, label %35, label %40

35:                                               ; preds = %33
  %36 = add nuw nsw i64 %.24767.i, 1
  %37 = getelementptr inbounds nuw i8, ptr %0, i64 %36
  %38 = load i8, ptr %37, align 1, !tbaa !14
  %39 = add i8 %38, -58
  %or.cond59.i = icmp ult i8 %39, -9
  br i1 %or.cond59.i, label %is_ntfs_dot_generic.exit, label %50

40:                                               ; preds = %33
  %41 = icmp samesign ult i64 %.24767.i, 6
  %.not56.i = icmp sgt i8 %28, -1
  %or.cond60.i = and i1 %41, %.not56.i
  br i1 %or.cond60.i, label %42, label %is_ntfs_dot_generic.exit

42:                                               ; preds = %40
  %43 = zext nneg i8 %28 to i64
  %44 = getelementptr inbounds nuw [256 x i8], ptr @sane_ctype, i64 0, i64 %43
  %45 = load i8, ptr %44, align 1, !tbaa !14
  %46 = shl i8 %45, 3
  %47 = and i8 %46, 32
  %spec.select.i63.i = or i8 %47, %28
  %48 = getelementptr inbounds nuw i8, ptr %2, i64 %.24767.i
  %49 = load i8, ptr %48, align 1, !tbaa !14
  %.not57.i = icmp eq i8 %spec.select.i63.i, %49
  br i1 %.not57.i, label %50, label %is_ntfs_dot_generic.exit

50:                                               ; preds = %42, %35, %31
  %.149.i = phi i32 [ 0, %42 ], [ 1, %31 ], [ 1, %35 ]
  %.3.i = phi i64 [ %.24767.i, %42 ], [ %.24767.i, %31 ], [ %36, %35 ]
  %51 = add nuw nsw i64 %.3.i, 1
  %52 = icmp ult i64 %.3.i, 7
  br i1 %52, label %26, label %.loopexit.i.preheader, !llvm.loop !104

is_ntfs_dot_generic.exit.loopexit:                ; preds = %.loopexit.i
  br label %is_ntfs_dot_generic.exit

is_ntfs_dot_generic.exit:                         ; preds = %26, %31, %35, %40, %42, %.loopexit.i, %.loopexit.i, %is_ntfs_dot_generic.exit.loopexit
  %.2.i = phi i32 [ 0, %is_ntfs_dot_generic.exit.loopexit ], [ 1, %.loopexit.i ], [ 1, %.loopexit.i ], [ 0, %42 ], [ 0, %40 ], [ 0, %35 ], [ 0, %31 ], [ 0, %26 ]
  ret i32 %.2.i
}